target datalayout = "e-m:e-p270:32:32-p271:32:32-p272:64:64-i64:64-i128:128-f80:128-n8:16:32:64-S128"
target triple = "x86_64-pc-linux-gnu"

%struct._generic_N_Vector = type { ptr, ptr, ptr }
%struct._generic_N_Vector_Ops = type { ptr, ptr, ptr, ptr, ptr, ptr, ptr, ptr, ptr, ptr, ptr, ptr, ptr, ptr, ptr, ptr, ptr, ptr, ptr, ptr, ptr, ptr, ptr, ptr, ptr, ptr, ptr, ptr, ptr, ptr, ptr, ptr, ptr, ptr, ptr, ptr, ptr, ptr, ptr, ptr, ptr, ptr, ptr, ptr, ptr, ptr, ptr, ptr, ptr, ptr, ptr, ptr, ptr, ptr, ptr, ptr }
%struct._MRIStepInnerStepper = type { ptr, ptr, ptr, ptr, i32, i32, i32, double, double, ptr, ptr, i64, i64, i64, i64 }

; Function Attrs: nounwind uwtable
define i32 @mriStepInnerStepper_FreeVecs(ptr noundef %0) #0 {
  %2 = alloca i32, align 4
  %3 = alloca ptr, align 8
  store ptr %0, ptr %3, align 8, !tbaa !11
  %4 = load ptr, ptr %3, align 8, !tbaa !11
  %5 = icmp eq ptr %4, null
  br i1 %5, label %6, label %7

6:                                                ; preds = %1
  store i32 -22, ptr %2, align 4
  br label %45

7:                                                ; preds = %1
  %8 = load ptr, ptr %3, align 8, !tbaa !11
  %9 = getelementptr inbounds nuw %struct._MRIStepInnerStepper, ptr %8, i32 0, i32 5
  %10 = load i32, ptr %9, align 4, !tbaa !227
  %11 = load ptr, ptr %3, align 8, !tbaa !11
  %12 = getelementptr inbounds nuw %struct._MRIStepInnerStepper, ptr %11, i32 0, i32 3
  %13 = load ptr, ptr %3, align 8, !tbaa !11
  %14 = getelementptr inbounds nuw %struct._MRIStepInnerStepper, ptr %13, i32 0, i32 11
  %15 = load i64, ptr %14, align 8, !tbaa !239
  %16 = load ptr, ptr %3, align 8, !tbaa !11
  %17 = getelementptr inbounds nuw %struct._MRIStepInnerStepper, ptr %16, i32 0, i32 13
  %18 = load ptr, ptr %3, align 8, !tbaa !11
  %19 = getelementptr inbounds nuw %struct._MRIStepInnerStepper, ptr %18, i32 0, i32 12
  %20 = load i64, ptr %19, align 8, !tbaa !240
  %21 = load ptr, ptr %3, align 8, !tbaa !11
  %22 = getelementptr inbounds nuw %struct._MRIStepInnerStepper, ptr %21, i32 0, i32 14
  call void @arkFreeVecArray(i32 noundef %10, ptr noundef %12, i64 noundef %15, ptr noundef %17, i64 noundef %20, ptr noundef %22)
  %23 = load ptr, ptr %3, align 8, !tbaa !11
  %24 = getelementptr inbounds nuw %struct._MRIStepInnerStepper, ptr %23, i32 0, i32 10
  %25 = load ptr, ptr %24, align 8, !tbaa !241
  %26 = icmp ne ptr %25, null
  br i1 %26, label %27, label %33

27:                                               ; preds = %7
  %28 = load ptr, ptr %3, align 8, !tbaa !11
  %29 = getelementptr inbounds nuw %struct._MRIStepInnerStepper, ptr %28, i32 0, i32 10
  %30 = load ptr, ptr %29, align 8, !tbaa !241
  call void @free(ptr noundef %30) #8
  %31 = load ptr, ptr %3, align 8, !tbaa !11
  %32 = getelementptr inbounds nuw %struct._MRIStepInnerStepper, ptr %31, i32 0, i32 10
  store ptr null, ptr %32, align 8, !tbaa !241
  br label %33

33:                                               ; preds = %27, %7
  %34 = load ptr, ptr %3, align 8, !tbaa !11
  %35 = getelementptr inbounds nuw %struct._MRIStepInnerStepper, ptr %34, i32 0, i32 9
  %36 = load ptr, ptr %35, align 8, !tbaa !242
  %37 = icmp ne ptr %36, null
  br i1 %37, label %38, label %44

38:                                               ; preds = %33
  %39 = load ptr, ptr %3, align 8, !tbaa !11
  %40 = getelementptr inbounds nuw %struct._MRIStepInnerStepper, ptr %39, i32 0, i32 9
  %41 = load ptr, ptr %40, align 8, !tbaa !242
  call void @free(ptr noundef %41) #8
  %42 = load ptr, ptr %3, align 8, !tbaa !11
  %43 = getelementptr inbounds nuw %struct._MRIStepInnerStepper, ptr %42, i32 0, i32 9
  store ptr null, ptr %43, align 8, !tbaa !242
  br label %44

44:                                               ; preds = %38, %33
  store i32 0, ptr %2, align 4
  br label %45

45:                                               ; preds = %44, %6
  %46 = load i32, ptr %2, align 4
  ret i32 %46
}

; Function Attrs: nounwind uwtable
define i32 @mriStepInnerStepper_AllocVecs(ptr noundef %0, i32 noundef %1, ptr noundef %2) #0 {
  %4 = alloca i32, align 4
  %5 = alloca ptr, align 8
  %6 = alloca i32, align 4
  %7 = alloca ptr, align 8
  %8 = alloca i64, align 8
  %9 = alloca i64, align 8
  %10 = alloca i32, align 4
  store ptr %0, ptr %5, align 8, !tbaa !11
  store i32 %1, ptr %6, align 4, !tbaa !15
  store ptr %2, ptr %7, align 8, !tbaa !9
  call void @llvm.lifetime.start.p0(i64 8, ptr %8) #8
  call void @llvm.lifetime.start.p0(i64 8, ptr %9) #8
  %11 = load ptr, ptr %5, align 8, !tbaa !11
  %12 = icmp eq ptr %11, null
  br i1 %12, label %13, label %14

13:                                               ; preds = %3
  store i32 -22, ptr %4, align 4
  store i32 1, ptr %10, align 4
  br label %131

14:                                               ; preds = %3
  %15 = load ptr, ptr %7, align 8, !tbaa !9
  %16 = getelementptr inbounds nuw %struct._generic_N_Vector, ptr %15, i32 0, i32 1
  %17 = load ptr, ptr %16, align 8, !tbaa !115
  %18 = getelementptr inbounds nuw %struct._generic_N_Vector_Ops, ptr %17, i32 0, i32 4
  %19 = load ptr, ptr %18, align 8, !tbaa !199
  %20 = icmp ne ptr %19, null
  br i1 %20, label %21, label %23

21:                                               ; preds = %14
  %22 = load ptr, ptr %7, align 8, !tbaa !9
  call void @N_VSpace(ptr noundef %22, ptr noundef %8, ptr noundef %9)
  br label %24

23:                                               ; preds = %14
  store i64 0, ptr %8, align 8, !tbaa !198
  store i64 0, ptr %9, align 8, !tbaa !198
  br label %24

24:                                               ; preds = %23, %21
  %25 = load i64, ptr %8, align 8, !tbaa !198
  %26 = load ptr, ptr %5, align 8, !tbaa !11
  %27 = getelementptr inbounds nuw %struct._MRIStepInnerStepper, ptr %26, i32 0, i32 11
  store i64 %25, ptr %27, align 8, !tbaa !239
  %28 = load i64, ptr %9, align 8, !tbaa !198
  %29 = load ptr, ptr %5, align 8, !tbaa !11
  %30 = getelementptr inbounds nuw %struct._MRIStepInnerStepper, ptr %29, i32 0, i32 12
  store i64 %28, ptr %30, align 8, !tbaa !240
  %31 = load i32, ptr %6, align 4, !tbaa !15
  %32 = load ptr, ptr %5, align 8, !tbaa !11
  %33 = getelementptr inbounds nuw %struct._MRIStepInnerStepper, ptr %32, i32 0, i32 4
  store i32 %31, ptr %33, align 8, !tbaa !230
  %34 = load ptr, ptr %5, align 8, !tbaa !11
  %35 = getelementptr inbounds nuw %struct._MRIStepInnerStepper, ptr %34, i32 0, i32 5
  %36 = load i32, ptr %35, align 4, !tbaa !227
  %37 = load ptr, ptr %5, align 8, !tbaa !11
  %38 = getelementptr inbounds nuw %struct._MRIStepInnerStepper, ptr %37, i32 0, i32 4
  %39 = load i32, ptr %38, align 8, !tbaa !230
  %40 = icmp slt i32 %36, %39
  br i1 %40, label %41, label %90

41:                                               ; preds = %24
  %42 = load ptr, ptr %5, align 8, !tbaa !11
  %43 = getelementptr inbounds nuw %struct._MRIStepInnerStepper, ptr %42, i32 0, i32 5
  %44 = load i32, ptr %43, align 4, !tbaa !227
  %45 = icmp ne i32 %44, 0
  br i1 %45, label %46, label %62

46:                                               ; preds = %41
  %47 = load ptr, ptr %5, align 8, !tbaa !11
  %48 = getelementptr inbounds nuw %struct._MRIStepInnerStepper, ptr %47, i32 0, i32 5
  %49 = load i32, ptr %48, align 4, !tbaa !227
  %50 = load ptr, ptr %5, align 8, !tbaa !11
  %51 = getelementptr inbounds nuw %struct._MRIStepInnerStepper, ptr %50, i32 0, i32 3
  %52 = load ptr, ptr %5, align 8, !tbaa !11
  %53 = getelementptr inbounds nuw %struct._MRIStepInnerStepper, ptr %52, i32 0, i32 11
  %54 = load i64, ptr %53, align 8, !tbaa !239
  %55 = load ptr, ptr %5, align 8, !tbaa !11
  %56 = getelementptr inbounds nuw %struct._MRIStepInnerStepper, ptr %55, i32 0, i32 13
  %57 = load ptr, ptr %5, align 8, !tbaa !11
  %58 = getelementptr inbounds nuw %struct._MRIStepInnerStepper, ptr %57, i32 0, i32 12
  %59 = load i64, ptr %58, align 8, !tbaa !240
  %60 = load ptr, ptr %5, align 8, !tbaa !11
  %61 = getelementptr inbounds nuw %struct._MRIStepInnerStepper, ptr %60, i32 0, i32 14
  call void @arkFreeVecArray(i32 noundef %49, ptr noundef %51, i64 noundef %54, ptr noundef %56, i64 noundef %59, ptr noundef %61)
  br label %62

62:                                               ; preds = %46, %41
  %63 = load ptr, ptr %5, align 8, !tbaa !11
  %64 = getelementptr inbounds nuw %struct._MRIStepInnerStepper, ptr %63, i32 0, i32 4
  %65 = load i32, ptr %64, align 8, !tbaa !230
  %66 = load ptr, ptr %7, align 8, !tbaa !9
  %67 = load ptr, ptr %5, align 8, !tbaa !11
  %68 = getelementptr inbounds nuw %struct._MRIStepInnerStepper, ptr %67, i32 0, i32 3
  %69 = load ptr, ptr %5, align 8, !tbaa !11
  %70 = getelementptr inbounds nuw %struct._MRIStepInnerStepper, ptr %69, i32 0, i32 11
  %71 = load i64, ptr %70, align 8, !tbaa !239
  %72 = load ptr, ptr %5, align 8, !tbaa !11
  %73 = getelementptr inbounds nuw %struct._MRIStepInnerStepper, ptr %72, i32 0, i32 13
  %74 = load ptr, ptr %5, align 8, !tbaa !11
  %75 = getelementptr inbounds nuw %struct._MRIStepInnerStepper, ptr %74, i32 0, i32 12
  %76 = load i64, ptr %75, align 8, !tbaa !240
  %77 = load ptr, ptr %5, align 8, !tbaa !11
  %78 = getelementptr inbounds nuw %struct._MRIStepInnerStepper, ptr %77, i32 0, i32 14
  %79 = call i32 @arkAllocVecArray(i32 noundef %65, ptr noundef %66, ptr noundef %68, i64 noundef %71, ptr noundef %73, i64 noundef %76, ptr noundef %78)
  %80 = icmp ne i32 %79, 0
  br i1 %80, label %84, label %81

81:                                               ; preds = %62
  %82 = load ptr, ptr %5, align 8, !tbaa !11
  %83 = call i32 @mriStepInnerStepper_FreeVecs(ptr noundef %82)
  store i32 -20, ptr %4, align 4
  store i32 1, ptr %10, align 4
  br label %131

84:                                               ; preds = %62
  %85 = load ptr, ptr %5, align 8, !tbaa !11
  %86 = getelementptr inbounds nuw %struct._MRIStepInnerStepper, ptr %85, i32 0, i32 4
  %87 = load i32, ptr %86, align 8, !tbaa !230
  %88 = load ptr, ptr %5, align 8, !tbaa !11
  %89 = getelementptr inbounds nuw %struct._MRIStepInnerStepper, ptr %88, i32 0, i32 5
  store i32 %87, ptr %89, align 4, !tbaa !227
  br label %90

90:                                               ; preds = %84, %24
  %91 = load ptr, ptr %5, align 8, !tbaa !11
  %92 = getelementptr inbounds nuw %struct._MRIStepInnerStepper, ptr %91, i32 0, i32 10
  %93 = load ptr, ptr %92, align 8, !tbaa !241
  %94 = icmp eq ptr %93, null
  br i1 %94, label %95, label %110

95:                                               ; preds = %90
  %96 = load i32, ptr %6, align 4, !tbaa !15
  %97 = add nsw i32 %96, 1
  %98 = sext i32 %97 to i64
  %99 = call noalias ptr @calloc(i64 noundef %98, i64 noundef 8) #9
  %100 = load ptr, ptr %5, align 8, !tbaa !11
  %101 = getelementptr inbounds nuw %struct._MRIStepInnerStepper, ptr %100, i32 0, i32 10
  store ptr %99, ptr %101, align 8, !tbaa !241
  %102 = load ptr, ptr %5, align 8, !tbaa !11
  %103 = getelementptr inbounds nuw %struct._MRIStepInnerStepper, ptr %102, i32 0, i32 10
  %104 = load ptr, ptr %103, align 8, !tbaa !241
  %105 = icmp eq ptr %104, null
  br i1 %105, label %106, label %109

106:                                              ; preds = %95
  %107 = load ptr, ptr %5, align 8, !tbaa !11
  %108 = call i32 @mriStepInnerStepper_FreeVecs(ptr noundef %107)
  store i32 -20, ptr %4, align 4
  store i32 1, ptr %10, align 4
  br label %131

109:                                              ; preds = %95
  br label %110

110:                                              ; preds = %109, %90
  %111 = load ptr, ptr %5, align 8, !tbaa !11
  %112 = getelementptr inbounds nuw %struct._MRIStepInnerStepper, ptr %111, i32 0, i32 9
  %113 = load ptr, ptr %112, align 8, !tbaa !242
  %114 = icmp eq ptr %113, null
  br i1 %114, label %115, label %130

115:                                              ; preds = %110
  %116 = load i32, ptr %6, align 4, !tbaa !15
  %117 = add nsw i32 %116, 1
  %118 = sext i32 %117 to i64
  %119 = call noalias ptr @calloc(i64 noundef %118, i64 noundef 8) #9
  %120 = load ptr, ptr %5, align 8, !tbaa !11
  %121 = getelementptr inbounds nuw %struct._MRIStepInnerStepper, ptr %120, i32 0, i32 9
  store ptr %119, ptr %121, align 8, !tbaa !242
  %122 = load ptr, ptr %5, align 8, !tbaa !11
  %123 = getelementptr inbounds nuw %struct._MRIStepInnerStepper, ptr %122, i32 0, i32 9
  %124 = load ptr, ptr %123, align 8, !tbaa !242
  %125 = icmp eq ptr %124, null
  br i1 %125, label %126, label %129

126:                                              ; preds = %115
  %127 = load ptr, ptr %5, align 8, !tbaa !11
  %128 = call i32 @mriStepInnerStepper_FreeVecs(ptr noundef %127)
  store i32 -20, ptr %4, align 4
  store i32 1, ptr %10, align 4
  br label %131

129:                                              ; preds = %115
  br label %130

130:                                              ; preds = %129, %110
  store i32 0, ptr %4, align 4
  store i32 1, ptr %10, align 4
  br label %131

131:                                              ; preds = %130, %126, %106, %81, %13
  call void @llvm.lifetime.end.p0(i64 8, ptr %9) #8
  call void @llvm.lifetime.end.p0(i64 8, ptr %8) #8
  %132 = load i32, ptr %4, align 4
  ret i32 %132
}