; Function Attrs: nounwind uwtable
define range(i32 -22, 1) i32 @mriStepInnerStepper_AllocVecs(ptr noundef %0, i32 noundef %1, ptr noundef %2) local_unnamed_addr #0 {
  %4 = alloca i64, align 8
  %5 = alloca i64, align 8
  call void @llvm.lifetime.start.p0(i64 8, ptr nonnull %4) #14
  call void @llvm.lifetime.start.p0(i64 8, ptr nonnull %5) #14
  %6 = icmp eq ptr %0, null
  br i1 %6, label %mriStepInnerStepper_FreeVecs.exit, label %7

7:                                                ; preds = %3
  %8 = getelementptr inbounds nuw i8, ptr %2, i64 8
  %9 = load ptr, ptr %8, align 8, !tbaa !3
  %10 = getelementptr inbounds nuw i8, ptr %9, i64 32
  %11 = load ptr, ptr %10, align 8, !tbaa !194
  %.not = icmp eq ptr %11, null
  br i1 %.not, label %13, label %12

12:                                               ; preds = %7
  call void @N_VSpace(ptr noundef nonnull %2, ptr noundef nonnull %4, ptr noundef nonnull %5) #14
  %.pre = load i64, ptr %4, align 8, !tbaa !193
  %.pre48 = load i64, ptr %5, align 8, !tbaa !193
  br label %14

13:                                               ; preds = %7
  store i64 0, ptr %4, align 8, !tbaa !193
  store i64 0, ptr %5, align 8, !tbaa !193
  br label %14

14:                                               ; preds = %13, %12
  %15 = phi i64 [ 0, %13 ], [ %.pre48, %12 ]
  %16 = phi i64 [ 0, %13 ], [ %.pre, %12 ]
  %17 = getelementptr inbounds nuw i8, ptr %0, i64 80
  store i64 %16, ptr %17, align 8, !tbaa !226
  %18 = getelementptr inbounds nuw i8, ptr %0, i64 88
  store i64 %15, ptr %18, align 8, !tbaa !227
  %19 = getelementptr inbounds nuw i8, ptr %0, i64 32
  store i32 %1, ptr %19, align 8, !tbaa !213
  %20 = getelementptr inbounds nuw i8, ptr %0, i64 36
  %21 = load i32, ptr %20, align 4, !tbaa !196
  %22 = icmp slt i32 %21, %1
  br i1 %22, label %23, label %49

23:                                               ; preds = %14
  %.not38 = icmp eq i32 %21, 0
  br i1 %.not38, label %28, label %24

24:                                               ; preds = %23
  %25 = getelementptr inbounds nuw i8, ptr %0, i64 24
  %26 = getelementptr inbounds nuw i8, ptr %0, i64 96
  %27 = getelementptr inbounds nuw i8, ptr %0, i64 104
  call void @arkFreeVecArray(i32 noundef %21, ptr noundef nonnull %25, i64 noundef %16, ptr noundef nonnull %26, i64 noundef %15, ptr noundef nonnull %27) #14
  %.pre49 = load i32, ptr %19, align 8, !tbaa !213
  %.pre50 = load i64, ptr %17, align 8, !tbaa !226
  %.pre51 = load i64, ptr %18, align 8, !tbaa !227
  br label %28

28:                                               ; preds = %24, %23
  %29 = phi i64 [ %.pre51, %24 ], [ %15, %23 ]
  %30 = phi i64 [ %.pre50, %24 ], [ %16, %23 ]
  %31 = phi i32 [ %.pre49, %24 ], [ %1, %23 ]
  %32 = getelementptr inbounds nuw i8, ptr %0, i64 24
  %33 = getelementptr inbounds nuw i8, ptr %0, i64 96
  %34 = getelementptr inbounds nuw i8, ptr %0, i64 104
  %35 = call i32 @arkAllocVecArray(i32 noundef %31, ptr noundef nonnull %2, ptr noundef nonnull %32, i64 noundef %30, ptr noundef nonnull %33, i64 noundef %29, ptr noundef nonnull %34) #14
  %.not39 = icmp eq i32 %35, 0
  br i1 %.not39, label %36, label %47

36:                                               ; preds = %28
  %37 = load i32, ptr %20, align 4, !tbaa !196
  %38 = load i64, ptr %17, align 8, !tbaa !226
  %39 = load i64, ptr %18, align 8, !tbaa !227
  call void @arkFreeVecArray(i32 noundef %37, ptr noundef nonnull %32, i64 noundef %38, ptr noundef nonnull %33, i64 noundef %39, ptr noundef nonnull %34) #14
  %40 = getelementptr inbounds nuw i8, ptr %0, i64 72
  %41 = load ptr, ptr %40, align 8, !tbaa !228
  %.not.i = icmp eq ptr %41, null
  br i1 %.not.i, label %43, label %42

42:                                               ; preds = %36
  call void @free(ptr noundef nonnull %41) #14
  store ptr null, ptr %40, align 8, !tbaa !228
  br label %43

43:                                               ; preds = %42, %36
  %44 = getelementptr inbounds nuw i8, ptr %0, i64 64
  %45 = load ptr, ptr %44, align 8, !tbaa !229
  %.not16.i = icmp eq ptr %45, null
  br i1 %.not16.i, label %mriStepInnerStepper_FreeVecs.exit, label %46

46:                                               ; preds = %43
  call void @free(ptr noundef nonnull %45) #14
  store ptr null, ptr %44, align 8, !tbaa !229
  br label %mriStepInnerStepper_FreeVecs.exit

47:                                               ; preds = %28
  %48 = load i32, ptr %19, align 8, !tbaa !213
  store i32 %48, ptr %20, align 4, !tbaa !196
  br label %49

49:                                               ; preds = %47, %14
  %50 = phi i32 [ %48, %47 ], [ %21, %14 ]
  %51 = getelementptr inbounds nuw i8, ptr %0, i64 72
  %52 = load ptr, ptr %51, align 8, !tbaa !228
  %53 = icmp eq ptr %52, null
  br i1 %53, label %54, label %71

54:                                               ; preds = %49
  %55 = add nsw i32 %1, 1
  %56 = sext i32 %55 to i64
  %57 = call noalias ptr @calloc(i64 noundef %56, i64 noundef 8) #15
  store ptr %57, ptr %51, align 8, !tbaa !228
  %58 = icmp eq ptr %57, null
  br i1 %58, label %59, label %71

59:                                               ; preds = %54
  %60 = getelementptr inbounds nuw i8, ptr %0, i64 24
  %61 = load i64, ptr %17, align 8, !tbaa !226
  %62 = getelementptr inbounds nuw i8, ptr %0, i64 96
  %63 = load i64, ptr %18, align 8, !tbaa !227
  %64 = getelementptr inbounds nuw i8, ptr %0, i64 104
  call void @arkFreeVecArray(i32 noundef %50, ptr noundef nonnull %60, i64 noundef %61, ptr noundef nonnull %62, i64 noundef %63, ptr noundef nonnull %64) #14
  %65 = load ptr, ptr %51, align 8, !tbaa !228
  %.not.i40 = icmp eq ptr %65, null
  br i1 %.not.i40, label %67, label %66

66:                                               ; preds = %59
  call void @free(ptr noundef nonnull %65) #14
  store ptr null, ptr %51, align 8, !tbaa !228
  br label %67

67:                                               ; preds = %66, %59
  %68 = getelementptr inbounds nuw i8, ptr %0, i64 64
  %69 = load ptr, ptr %68, align 8, !tbaa !229
  %.not16.i41 = icmp eq ptr %69, null
  br i1 %.not16.i41, label %mriStepInnerStepper_FreeVecs.exit, label %70

70:                                               ; preds = %67
  call void @free(ptr noundef nonnull %69) #14
  store ptr null, ptr %68, align 8, !tbaa !229
  br label %mriStepInnerStepper_FreeVecs.exit

71:                                               ; preds = %54, %49
  %72 = getelementptr inbounds nuw i8, ptr %0, i64 64
  %73 = load ptr, ptr %72, align 8, !tbaa !229
  %74 = icmp eq ptr %73, null
  br i1 %74, label %75, label %mriStepInnerStepper_FreeVecs.exit

75:                                               ; preds = %71
  %76 = add nsw i32 %1, 1
  %77 = sext i32 %76 to i64
  %78 = call noalias ptr @calloc(i64 noundef %77, i64 noundef 8) #15
  store ptr %78, ptr %72, align 8, !tbaa !229
  %79 = icmp eq ptr %78, null
  br i1 %79, label %80, label %mriStepInnerStepper_FreeVecs.exit

80:                                               ; preds = %75
  %81 = getelementptr inbounds nuw i8, ptr %0, i64 24
  %82 = load i64, ptr %17, align 8, !tbaa !226
  %83 = getelementptr inbounds nuw i8, ptr %0, i64 96
  %84 = load i64, ptr %18, align 8, !tbaa !227
  %85 = getelementptr inbounds nuw i8, ptr %0, i64 104
  call void @arkFreeVecArray(i32 noundef %50, ptr noundef nonnull %81, i64 noundef %82, ptr noundef nonnull %83, i64 noundef %84, ptr noundef nonnull %85) #14
  %86 = load ptr, ptr %51, align 8, !tbaa !228
  %.not.i44 = icmp eq ptr %86, null
  br i1 %.not.i44, label %88, label %87

87:                                               ; preds = %80
  call void @free(ptr noundef nonnull %86) #14
  store ptr null, ptr %51, align 8, !tbaa !228
  br label %88

88:                                               ; preds = %87, %80
  %89 = load ptr, ptr %72, align 8, !tbaa !229
  %.not16.i45 = icmp eq ptr %89, null
  br i1 %.not16.i45, label %mriStepInnerStepper_FreeVecs.exit, label %90

90:                                               ; preds = %88
  call void @free(ptr noundef nonnull %89) #14
  store ptr null, ptr %72, align 8, !tbaa !229
  br label %mriStepInnerStepper_FreeVecs.exit

mriStepInnerStepper_FreeVecs.exit:                ; preds = %90, %88, %70, %67, %46, %43, %71, %75, %3
  %.0 = phi i32 [ -22, %3 ], [ 0, %75 ], [ 0, %71 ], [ -20, %43 ], [ -20, %46 ], [ -20, %67 ], [ -20, %70 ], [ -20, %88 ], [ -20, %90 ]
  call void @llvm.lifetime.end.p0(i64 8, ptr nonnull %5) #14
  call void @llvm.lifetime.end.p0(i64 8, ptr nonnull %4) #14
  ret i32 %.0
}